#include <math.h>
#include <stdio.h>
#include <stdlib.h>
#include <string.h>

int main(){
 int x,y; 
    y=0; 
    scanf("%d",&x); 
    while(x>9){ 
      y=(y+x-x/10*10)*10; 
      x=x/10; 
    } 
    y=y+x; 
    printf("%d\n",y);
}